Certificate:
    Data:
        Version: 3 (0x2)
        Serial Number: 1 (0x1)
        Signature Algorithm: sha256WithRSAEncryption
        Issuer: O=Monaco Telecom, CN=Group Root Certification Authority
        Validity
            Not Before: Mar 31 11:29:38 2021 GMT
            Not After : Apr  1 12:00:00 2041 GMT
        Subject: O=Monaco Telecom, CN=Group Root Certification Authority
        Subject Public Key Info:
            Public Key Algorithm: rsaEncryption
                RSA Public-Key: (4096 bit)
                Modulus:
                    00:d4:4e:8f:31:6c:1d:c5:6f:b5:6c:7b:be:17:0a:
                    50:44:8b:4d:dc:0a:95:18:f8:ad:ce:db:41:5f:df:
                    7f:b8:39:1f:ee:a0:29:f5:1f:0e:db:4d:07:e0:31:
                    be:12:ea:45:6e:2f:c1:40:50:72:82:b3:34:b1:6f:
                    7b:29:e8:79:23:88:3a:13:de:93:2b:59:a8:47:e2:
                    51:0d:75:d8:76:81:5b:73:35:31:74:bf:8e:11:cd:
                    82:cb:3d:92:9d:17:9d:25:27:69:82:97:be:56:88:
                    a6:14:3a:41:f2:8b:f3:0a:4c:ba:07:c2:46:76:4f:
                    33:29:57:df:f6:66:13:9c:e8:66:0b:b3:7b:c3:3c:
                    39:60:ea:a9:dc:04:95:52:44:fb:42:8b:52:6f:68:
                    7e:cd:70:a6:5c:eb:fe:88:d6:f0:46:6e:86:45:dd:
                    a5:d2:b4:ee:a1:2a:a9:dd:f0:f1:bb:64:09:89:09:
                    d5:3d:80:01:a0:83:4c:f2:26:47:54:f1:ef:e6:eb:
                    94:fa:4c:e3:1f:0c:dc:e4:3b:d6:af:cd:0f:fd:67:
                    06:a4:3d:fb:7f:cd:42:6c:5f:51:b8:1a:39:b2:01:
                    80:ab:0c:a5:4a:2f:8a:83:46:84:bf:51:25:79:f1:
                    4f:4c:01:5f:22:06:46:fb:0a:8c:78:a0:ae:a9:2a:
                    84:47:6b:ce:11:e3:af:13:f0:60:2e:39:23:6a:79:
                    b1:bf:3c:ab:eb:58:2f:c1:b6:68:c3:23:d2:40:61:
                    29:6f:2a:10:48:40:de:20:2e:0c:e2:b2:88:e8:fb:
                    5d:6d:45:84:8b:3b:94:24:ab:f8:97:10:28:8a:c5:
                    93:d2:fa:af:3d:05:c3:0f:ce:47:bf:2c:b2:c3:0d:
                    2e:6e:1e:57:be:b7:08:5d:58:54:87:f9:d9:e6:ca:
                    2f:36:8c:26:69:cc:0e:e8:33:4a:bb:be:c3:b3:2c:
                    0f:b6:63:67:dd:1c:12:79:c5:d8:de:65:25:28:f7:
                    df:f0:b2:e3:bb:8d:d8:ec:8f:3c:79:20:b8:cf:0d:
                    31:2e:c3:af:f8:f3:5f:2c:e3:71:83:00:14:59:99:
                    55:62:0d:b4:2c:a2:82:c3:3e:f1:68:ea:17:a1:b3:
                    82:0f:61:68:be:09:1a:0f:64:03:09:51:01:2c:f9:
                    13:d7:52:d9:a8:7e:87:5f:f3:2a:e9:d1:4f:1a:8b:
                    e8:0e:dc:61:b2:63:07:75:a8:b3:58:2b:1c:91:82:
                    9a:39:30:55:b2:66:d9:51:63:05:b3:6e:49:84:ef:
                    91:f2:ab:f3:7f:3e:e8:d1:8b:2b:5b:0b:5a:34:d4:
                    0b:8d:6e:42:10:7f:62:20:78:a2:84:55:36:d3:e9:
                    c7:95:af
                Exponent: 65537 (0x10001)
        X509v3 extensions:
            X509v3 Key Usage: critical
                Certificate Sign, CRL Sign
            X509v3 Basic Constraints: critical
                CA:TRUE
            X509v3 Subject Key Identifier: 
                81:D6:6E:6E:02:6C:EA:9D:26:CF:15:F7:E2:DF:0A:1E:F2:77:53:6D
            X509v3 Authority Key Identifier: 
                keyid:81:D6:6E:6E:02:6C:EA:9D:26:CF:15:F7:E2:DF:0A:1E:F2:77:53:6D

    Signature Algorithm: sha256WithRSAEncryption
         64:90:3b:a3:c6:a0:6d:c1:76:d3:d2:4e:11:09:06:ad:90:ff:
         10:1b:19:45:1f:1d:43:d4:49:59:9f:6a:3b:40:b4:9c:9a:a1:
         de:2e:b0:5d:16:42:8f:5d:6c:37:08:1e:05:69:c2:7d:3e:a8:
         9b:4c:9c:f9:14:1b:a0:00:55:80:de:55:9e:6a:f2:5a:b4:a0:
         3f:a2:d4:7c:d9:f3:18:f7:c6:9b:65:1e:b4:a4:93:ba:e4:68:
         cf:58:c9:88:3c:8a:6c:e1:7d:5c:1b:ab:ed:00:9c:5b:f0:3f:
         17:47:e1:10:26:54:2b:6f:33:a0:3b:c4:dc:c8:08:f3:7e:13:
         94:40:65:62:4b:be:3d:39:f9:07:73:84:f7:64:38:6e:a0:17:
         05:72:ef:52:99:1a:cf:3c:67:d1:d9:a7:f7:7a:d9:71:4a:63:
         75:3e:ee:07:cd:85:79:8c:c6:fc:22:bc:a8:d3:30:e1:03:58:
         4c:c1:33:5e:ed:90:bf:2f:80:a7:c4:20:a0:f1:0d:b5:da:b1:
         2e:d5:da:95:47:9c:19:97:ff:bb:2a:bc:ff:e1:cf:15:9b:8a:
         7b:e2:42:56:15:d3:63:b4:8c:a8:4a:9e:7e:0a:d3:65:c4:1a:
         21:bd:3d:03:94:0d:d5:26:b9:52:29:47:fc:4f:7b:24:cb:c3:
         d6:7c:f6:91:4a:80:65:6d:03:86:f3:77:63:f9:f9:e5:53:b7:
         cc:21:77:65:e9:ef:a8:67:25:b8:6d:fe:f3:d8:83:60:79:e1:
         ee:ec:28:9f:64:8b:7c:ca:e8:53:b1:5c:0a:29:a7:d1:e7:47:
         7d:50:7b:5e:4c:bb:3d:58:c2:4c:78:c6:ef:51:41:57:36:57:
         5f:ab:09:e2:76:bf:06:ac:de:33:8f:09:23:10:b2:73:da:83:
         a3:71:68:1a:07:da:e8:b5:6e:eb:8d:2c:1b:f2:e9:b4:50:bf:
         af:b1:8e:f5:69:62:85:09:82:c1:2f:27:a9:73:21:6f:90:6b:
         df:12:30:ba:fd:04:f1:6a:60:8a:36:b4:1e:e0:65:e7:3d:ac:
         c5:ac:a5:f9:e8:e7:13:82:1b:3c:33:44:0e:c7:d9:9d:48:7b:
         0e:99:83:37:46:e7:e3:74:03:e1:8b:a4:39:37:11:e3:f4:ca:
         78:13:bb:e9:97:76:66:c6:31:3d:70:0c:00:a0:83:82:72:96:
         b0:80:fd:31:86:06:09:b4:12:85:1e:c5:74:67:52:5a:6c:9e:
         42:88:6c:f9:64:bd:16:ca:f5:f0:d0:74:e4:46:44:b5:38:a8:
         c3:ae:12:19:09:41:f3:61:6e:f9:cd:17:c4:96:28:3c:fe:2c:
         a3:40:34:b2:01:9d:2a:cf
-----BEGIN CERTIFICATE-----
MIIFajCCA1KgAwIBAgIBATANBgkqhkiG9w0BAQsFADBGMRcwFQYDVQQKDA5Nb25h
Y28gVGVsZWNvbTErMCkGA1UEAwwiR3JvdXAgUm9vdCBDZXJ0aWZpY2F0aW9uIEF1
dGhvcml0eTAeFw0yMTAzMzExMTI5MzhaFw00MTA0MDExMjAwMDBaMEYxFzAVBgNV
BAoMDk1vbmFjbyBUZWxlY29tMSswKQYDVQQDDCJHcm91cCBSb290IENlcnRpZmlj
YXRpb24gQXV0aG9yaXR5MIICIjANBgkqhkiG9w0BAQEFAAOCAg8AMIICCgKCAgEA
1E6PMWwdxW+1bHu+FwpQRItN3AqVGPitzttBX99/uDkf7qAp9R8O200H4DG+EupF
bi/BQFBygrM0sW97Keh5I4g6E96TK1moR+JRDXXYdoFbczUxdL+OEc2Cyz2SnRed
JSdpgpe+VoimFDpB8ovzCky6B8JGdk8zKVff9mYTnOhmC7N7wzw5YOqp3ASVUkT7
QotSb2h+zXCmXOv+iNbwRm6GRd2l0rTuoSqp3fDxu2QJiQnVPYABoINM8iZHVPHv
5uuU+kzjHwzc5DvWr80P/WcGpD37f81CbF9RuBo5sgGAqwylSi+Kg0aEv1ElefFP
TAFfIgZG+wqMeKCuqSqER2vOEeOvE/BgLjkjanmxvzyr61gvwbZowyPSQGEpbyoQ
SEDeIC4M4rKI6PtdbUWEizuUJKv4lxAoisWT0vqvPQXDD85Hvyyyww0ubh5XvrcI
XVhUh/nZ5sovNowmacwO6DNKu77DsywPtmNn3RwSecXY3mUlKPff8LLju43Y7I88
eSC4zw0xLsOv+PNfLONxgwAUWZlVYg20LKKCwz7xaOoXobOCD2FovgkaD2QDCVEB
LPkT11LZqH6HX/Mq6dFPGovoDtxhsmMHdaizWCsckYKaOTBVsmbZUWMFs25JhO+R
8qvzfz7o0YsrWwtaNNQLjW5CEH9iIHiihFU20+nHla8CAwEAAaNjMGEwDgYDVR0P
AQH/BAQDAgEGMA8GA1UdEwEB/wQFMAMBAf8wHQYDVR0OBBYEFIHWbm4CbOqdJs8V
9+LfCh7yd1NtMB8GA1UdIwQYMBaAFIHWbm4CbOqdJs8V9+LfCh7yd1NtMA0GCSqG
SIb3DQEBCwUAA4ICAQBkkDujxqBtwXbT0k4RCQatkP8QGxlFHx1D1ElZn2o7QLSc
mqHeLrBdFkKPXWw3CB4FacJ9PqibTJz5FBugAFWA3lWeavJatKA/otR82fMY98ab
ZR60pJO65GjPWMmIPIps4X1cG6vtAJxb8D8XR+EQJlQrbzOgO8TcyAjzfhOUQGVi
S749OfkHc4T3ZDhuoBcFcu9SmRrPPGfR2af3etlxSmN1Pu4HzYV5jMb8Iryo0zDh
A1hMwTNe7ZC/L4CnxCCg8Q212rEu1dqVR5wZl/+7Krz/4c8Vm4p74kJWFdNjtIyo
Sp5+CtNlxBohvT0DlA3VJrlSKUf8T3sky8PWfPaRSoBlbQOG83dj+fnlU7fMIXdl
6e+oZyW4bf7z2INgeeHu7CifZIt8yuhTsVwKKafR50d9UHteTLs9WMJMeMbvUUFX
Nldfqwnidr8GrN4zjwkjELJz2oOjcWgaB9rotW7rjSwb8um0UL+vsY71aWKFCYLB
LyepcyFvkGvfEjC6/QTxamCKNrQe4GXnPazFrKX56OcTghs8M0QOx9mdSHsOmYM3
RufjdAPhi6Q5NxHj9Mp4E7vpl3ZmxjE9cAwAoIOCcpawgP0xhgYJtBKFHsV0Z1Ja
bJ5CiGz5ZL0WyvXw0HTkRkS1OKjDrhIZCUHzYW75zRfElig8/iyjQDSyAZ0qzw==
-----END CERTIFICATE-----
